; Function Attrs: mustprogress nofree norecurse nosync nounwind willreturn memory(read, inaccessiblemem: none) uwtable
define dso_local noundef zeroext i1 @_ZNK4node4quic6Stream12is_destroyedEv(ptr nocapture noundef nonnull readonly align 8 dereferenceable(256) %this) local_unnamed_addr #7 align 2 {
entry:
  %ptr_.i = getelementptr inbounds i8, ptr %this, i64 144
  %0 = load ptr, ptr %ptr_.i, align 8
  %destroyed = getelementptr inbounds i8, ptr %0, i64 12
  %1 = load i8, ptr %destroyed, align 4
  %tobool = icmp ne i8 %1, 0
  ret i1 %tobool
}